; Function Attrs: mustprogress uwtable
define hidden noundef zeroext i1 @_ZN3vas2ot7Tracker21RemoveOneLostTrackletEv(ptr noundef nonnull align 8 dereferenceable(72) %0) local_unnamed_addr #0 align 2 {
  %2 = getelementptr inbounds i8, ptr %0, i64 48
  %3 = load ptr, ptr %2, align 8
  %4 = getelementptr inbounds i8, ptr %0, i64 56
  %5 = load ptr, ptr %4, align 8
  %.not = icmp eq ptr %3, %5
  br i1 %.not, label %.loopexit, label %.lr.ph

.lr.ph:                                           ; preds = %1, %16
  %.sroa.03.09 = phi ptr [ %17, %16 ], [ %3, %1 ]
  %6 = load ptr, ptr %.sroa.03.09, align 8
  %7 = getelementptr inbounds i8, ptr %6, i64 20
  %8 = load i32, ptr %7, align 4
  %9 = icmp eq i32 %8, 2
  br i1 %9, label %10, label %16

10:                                               ; preds = %.lr.ph
  %11 = ptrtoint ptr %.sroa.03.09 to i64
  %12 = ptrtoint ptr %3 to i64
  %13 = sub i64 %11, %12
  %14 = getelementptr inbounds i8, ptr %3, i64 %13
  %15 = tail call ptr @_ZNSt6vectorISt10shared_ptrIN3vas2ot8TrackletEESaIS4_EE8_M_eraseEN9__gnu_cxx17__normal_iteratorIPS4_S6_EE(ptr noundef nonnull align 8 dereferenceable(24) %2, ptr %14)
  br label %.loopexit

16:                                               ; preds = %.lr.ph
  %17 = getelementptr inbounds i8, ptr %.sroa.03.09, i64 16
  %.not13 = icmp eq ptr %17, %5
  br i1 %.not13, label %.loopexit, label %.lr.ph, !llvm.loop !24

.loopexit:                                        ; preds = %16, %1, %10
  %18 = phi i1 [ true, %10 ], [ false, %1 ], [ false, %16 ]
  ret i1 %18
}